target datalayout = "e-m:e-p270:32:32-p271:32:32-p272:64:64-i64:64-i128:128-f80:128-n8:16:32:64-S128"
target triple = "x86_64-pc-linux-gnu"

%struct.config_s = type { i16, i16, i16, i16, ptr }
%struct.z_stream_s = type { ptr, i32, i64, ptr, i32, i64, ptr, ptr, ptr, ptr, ptr, i32, i64, i64 }
%struct.internal_state = type { ptr, i32, ptr, i64, ptr, i64, i32, ptr, i64, i8, i32, i32, i32, i32, ptr, i64, ptr, ptr, i32, i32, i32, i32, i32, i64, i32, i32, i32, i32, i32, i32, i32, i32, i32, i32, i32, i32, i32, [573 x %struct.ct_data_s], [61 x %struct.ct_data_s], [39 x %struct.ct_data_s], %struct.tree_desc_s, %struct.tree_desc_s, %struct.tree_desc_s, [16 x i16], [573 x i32], i32, i32, [573 x i8], ptr, i32, i32, i32, i64, i64, i32, i32, i16, i32, i32, i64 }
%struct.ct_data_s = type { %union.anon, %union.anon.0 }
%union.anon = type { i16 }
%union.anon.0 = type { i16 }
%struct.tree_desc_s = type { ptr, i32, ptr }

; Function Attrs: nounwind uwtable
define internal i32 @deflateStateCheck(ptr noundef %0) #0 {
  %2 = alloca i32, align 4
  %3 = alloca ptr, align 8
  %4 = alloca ptr, align 8
  %5 = alloca i32, align 4
  store ptr %0, ptr %3, align 8, !tbaa !3
  call void @llvm.lifetime.start.p0(i64 8, ptr %4) #5
  %6 = load ptr, ptr %3, align 8, !tbaa !3
  %7 = icmp eq ptr %6, null
  br i1 %7, label %18, label %8

8:                                                ; preds = %1
  %9 = load ptr, ptr %3, align 8, !tbaa !3
  %10 = getelementptr inbounds nuw %struct.z_stream_s, ptr %9, i32 0, i32 8
  %11 = load ptr, ptr %10, align 8, !tbaa !17
  %12 = icmp eq ptr %11, null
  br i1 %12, label %18, label %13

13:                                               ; preds = %8
  %14 = load ptr, ptr %3, align 8, !tbaa !3
  %15 = getelementptr inbounds nuw %struct.z_stream_s, ptr %14, i32 0, i32 9
  %16 = load ptr, ptr %15, align 8, !tbaa !19
  %17 = icmp eq ptr %16, null
  br i1 %17, label %18, label %19

18:                                               ; preds = %13, %8, %1
  store i32 1, ptr %2, align 4
  store i32 1, ptr %5, align 4
  br label %73

19:                                               ; preds = %13
  %20 = load ptr, ptr %3, align 8, !tbaa !3
  %21 = getelementptr inbounds nuw %struct.z_stream_s, ptr %20, i32 0, i32 7
  %22 = load ptr, ptr %21, align 8, !tbaa !21
  store ptr %22, ptr %4, align 8, !tbaa !20
  %23 = load ptr, ptr %4, align 8, !tbaa !20
  %24 = icmp eq ptr %23, null
  br i1 %24, label %71, label %25

25:                                               ; preds = %19
  %26 = load ptr, ptr %4, align 8, !tbaa !20
  %27 = getelementptr inbounds nuw %struct.internal_state, ptr %26, i32 0, i32 0
  %28 = load ptr, ptr %27, align 8, !tbaa !22
  %29 = load ptr, ptr %3, align 8, !tbaa !3
  %30 = icmp ne ptr %28, %29
  br i1 %30, label %71, label %31

31:                                               ; preds = %25
  %32 = load ptr, ptr %4, align 8, !tbaa !20
  %33 = getelementptr inbounds nuw %struct.internal_state, ptr %32, i32 0, i32 1
  %34 = load i32, ptr %33, align 8, !tbaa !30
  %35 = icmp ne i32 %34, 42
  br i1 %35, label %36, label %72

36:                                               ; preds = %31
  %37 = load ptr, ptr %4, align 8, !tbaa !20
  %38 = getelementptr inbounds nuw %struct.internal_state, ptr %37, i32 0, i32 1
  %39 = load i32, ptr %38, align 8, !tbaa !30
  %40 = icmp ne i32 %39, 57
  br i1 %40, label %41, label %72

41:                                               ; preds = %36
  %42 = load ptr, ptr %4, align 8, !tbaa !20
  %43 = getelementptr inbounds nuw %struct.internal_state, ptr %42, i32 0, i32 1
  %44 = load i32, ptr %43, align 8, !tbaa !30
  %45 = icmp ne i32 %44, 69
  br i1 %45, label %46, label %72

46:                                               ; preds = %41
  %47 = load ptr, ptr %4, align 8, !tbaa !20
  %48 = getelementptr inbounds nuw %struct.internal_state, ptr %47, i32 0, i32 1
  %49 = load i32, ptr %48, align 8, !tbaa !30
  %50 = icmp ne i32 %49, 73
  br i1 %50, label %51, label %72

51:                                               ; preds = %46
  %52 = load ptr, ptr %4, align 8, !tbaa !20
  %53 = getelementptr inbounds nuw %struct.internal_state, ptr %52, i32 0, i32 1
  %54 = load i32, ptr %53, align 8, !tbaa !30
  %55 = icmp ne i32 %54, 91
  br i1 %55, label %56, label %72

56:                                               ; preds = %51
  %57 = load ptr, ptr %4, align 8, !tbaa !20
  %58 = getelementptr inbounds nuw %struct.internal_state, ptr %57, i32 0, i32 1
  %59 = load i32, ptr %58, align 8, !tbaa !30
  %60 = icmp ne i32 %59, 103
  br i1 %60, label %61, label %72

61:                                               ; preds = %56
  %62 = load ptr, ptr %4, align 8, !tbaa !20
  %63 = getelementptr inbounds nuw %struct.internal_state, ptr %62, i32 0, i32 1
  %64 = load i32, ptr %63, align 8, !tbaa !30
  %65 = icmp ne i32 %64, 113
  br i1 %65, label %66, label %72

66:                                               ; preds = %61
  %67 = load ptr, ptr %4, align 8, !tbaa !20
  %68 = getelementptr inbounds nuw %struct.internal_state, ptr %67, i32 0, i32 1
  %69 = load i32, ptr %68, align 8, !tbaa !30
  %70 = icmp ne i32 %69, 666
  br i1 %70, label %71, label %72

71:                                               ; preds = %66, %25, %19
  store i32 1, ptr %2, align 4
  store i32 1, ptr %5, align 4
  br label %73

72:                                               ; preds = %66, %61, %56, %51, %46, %41, %36, %31
  store i32 0, ptr %2, align 4
  store i32 1, ptr %5, align 4
  br label %73

73:                                               ; preds = %72, %71, %18
  call void @llvm.lifetime.end.p0(i64 8, ptr %4) #5
  %74 = load i32, ptr %2, align 4
  ret i32 %74
}

; Function Attrs: nounwind uwtable
define i32 @deflateParams(ptr noundef %0, i32 noundef %1, i32 noundef %2) #0 {
  %4 = alloca i32, align 4
  %5 = alloca ptr, align 8
  %6 = alloca i32, align 4
  %7 = alloca i32, align 4
  %8 = alloca ptr, align 8
  %9 = alloca ptr, align 8
  %10 = alloca i32, align 4
  %11 = alloca i32, align 4
  store ptr %0, ptr %5, align 8, !tbaa !3
  store i32 %1, ptr %6, align 4, !tbaa !8
  store i32 %2, ptr %7, align 4, !tbaa !8
  call void @llvm.lifetime.start.p0(i64 8, ptr %8) #5
  call void @llvm.lifetime.start.p0(i64 8, ptr %9) #5
  %12 = load ptr, ptr %5, align 8, !tbaa !3
  %13 = call i32 @deflateStateCheck(ptr noundef %12)
  %14 = icmp ne i32 %13, 0
  br i1 %14, label %15, label %16

15:                                               ; preds = %3
  store i32 -2, ptr %4, align 4
  store i32 1, ptr %10, align 4
  br label %182

16:                                               ; preds = %3
  %17 = load ptr, ptr %5, align 8, !tbaa !3
  %18 = getelementptr inbounds nuw %struct.z_stream_s, ptr %17, i32 0, i32 7
  %19 = load ptr, ptr %18, align 8, !tbaa !21
  store ptr %19, ptr %8, align 8, !tbaa !20
  %20 = load i32, ptr %6, align 4, !tbaa !8
  %21 = icmp eq i32 %20, -1
  br i1 %21, label %22, label %23

22:                                               ; preds = %16
  store i32 6, ptr %6, align 4, !tbaa !8
  br label %23

23:                                               ; preds = %22, %16
  %24 = load i32, ptr %6, align 4, !tbaa !8
  %25 = icmp slt i32 %24, 0
  br i1 %25, label %35, label %26

26:                                               ; preds = %23
  %27 = load i32, ptr %6, align 4, !tbaa !8
  %28 = icmp sgt i32 %27, 9
  br i1 %28, label %35, label %29

29:                                               ; preds = %26
  %30 = load i32, ptr %7, align 4, !tbaa !8
  %31 = icmp slt i32 %30, 0
  br i1 %31, label %35, label %32

32:                                               ; preds = %29
  %33 = load i32, ptr %7, align 4, !tbaa !8
  %34 = icmp sgt i32 %33, 4
  br i1 %34, label %35, label %36

35:                                               ; preds = %32, %29, %26, %23
  store i32 -2, ptr %4, align 4
  store i32 1, ptr %10, align 4
  br label %182

36:                                               ; preds = %32
  %37 = load ptr, ptr %8, align 8, !tbaa !20
  %38 = getelementptr inbounds nuw %struct.internal_state, ptr %37, i32 0, i32 33
  %39 = load i32, ptr %38, align 4, !tbaa !49
  %40 = sext i32 %39 to i64
  %41 = getelementptr inbounds [10 x %struct.config_s], ptr @configuration_table, i64 0, i64 %40
  %42 = getelementptr inbounds nuw %struct.config_s, ptr %41, i32 0, i32 4
  %43 = load ptr, ptr %42, align 8, !tbaa !94
  store ptr %43, ptr %9, align 8, !tbaa !95
  %44 = load i32, ptr %7, align 4, !tbaa !8
  %45 = load ptr, ptr %8, align 8, !tbaa !20
  %46 = getelementptr inbounds nuw %struct.internal_state, ptr %45, i32 0, i32 34
  %47 = load i32, ptr %46, align 8, !tbaa !50
  %48 = icmp ne i32 %44, %47
  br i1 %48, label %57, label %49

49:                                               ; preds = %36
  %50 = load ptr, ptr %9, align 8, !tbaa !95
  %51 = load i32, ptr %6, align 4, !tbaa !8
  %52 = sext i32 %51 to i64
  %53 = getelementptr inbounds [10 x %struct.config_s], ptr @configuration_table, i64 0, i64 %52
  %54 = getelementptr inbounds nuw %struct.config_s, ptr %53, i32 0, i32 4
  %55 = load ptr, ptr %54, align 8, !tbaa !94
  %56 = icmp ne ptr %50, %55
  br i1 %56, label %57, label %94

57:                                               ; preds = %49, %36
  %58 = load ptr, ptr %8, align 8, !tbaa !20
  %59 = getelementptr inbounds nuw %struct.internal_state, ptr %58, i32 0, i32 10
  %60 = load i32, ptr %59, align 4, !tbaa !79
  %61 = icmp ne i32 %60, -2
  br i1 %61, label %62, label %94

62:                                               ; preds = %57
  call void @llvm.lifetime.start.p0(i64 4, ptr %11) #5
  %63 = load ptr, ptr %5, align 8, !tbaa !3
  %64 = call i32 @deflate(ptr noundef %63, i32 noundef 5)
  store i32 %64, ptr %11, align 4, !tbaa !8
  %65 = load i32, ptr %11, align 4, !tbaa !8
  %66 = icmp eq i32 %65, -2
  br i1 %66, label %67, label %69

67:                                               ; preds = %62
  %68 = load i32, ptr %11, align 4, !tbaa !8
  store i32 %68, ptr %4, align 4
  store i32 1, ptr %10, align 4
  br label %91

69:                                               ; preds = %62
  %70 = load ptr, ptr %5, align 8, !tbaa !3
  %71 = getelementptr inbounds nuw %struct.z_stream_s, ptr %70, i32 0, i32 1
  %72 = load i32, ptr %71, align 8, !tbaa !58
  %73 = icmp ne i32 %72, 0
  br i1 %73, label %89, label %74

74:                                               ; preds = %69
  %75 = load ptr, ptr %8, align 8, !tbaa !20
  %76 = getelementptr inbounds nuw %struct.internal_state, ptr %75, i32 0, i32 27
  %77 = load i32, ptr %76, align 4, !tbaa !55
  %78 = zext i32 %77 to i64
  %79 = load ptr, ptr %8, align 8, !tbaa !20
  %80 = getelementptr inbounds nuw %struct.internal_state, ptr %79, i32 0, i32 23
  %81 = load i64, ptr %80, align 8, !tbaa !56
  %82 = sub nsw i64 %78, %81
  %83 = load ptr, ptr %8, align 8, !tbaa !20
  %84 = getelementptr inbounds nuw %struct.internal_state, ptr %83, i32 0, i32 29
  %85 = load i32, ptr %84, align 4, !tbaa !52
  %86 = zext i32 %85 to i64
  %87 = add nsw i64 %82, %86
  %88 = icmp ne i64 %87, 0
  br i1 %88, label %89, label %90

89:                                               ; preds = %74, %69
  store i32 -5, ptr %4, align 4
  store i32 1, ptr %10, align 4
  br label %91

90:                                               ; preds = %74
  store i32 0, ptr %10, align 4
  br label %91

91:                                               ; preds = %90, %89, %67
  call void @llvm.lifetime.end.p0(i64 4, ptr %11) #5
  %92 = load i32, ptr %10, align 4
  switch i32 %92, label %182 [
    i32 0, label %93
  ]

93:                                               ; preds = %91
  br label %94

94:                                               ; preds = %93, %57, %49
  %95 = load ptr, ptr %8, align 8, !tbaa !20
  %96 = getelementptr inbounds nuw %struct.internal_state, ptr %95, i32 0, i32 33
  %97 = load i32, ptr %96, align 4, !tbaa !49
  %98 = load i32, ptr %6, align 4, !tbaa !8
  %99 = icmp ne i32 %97, %98
  br i1 %99, label %100, label %178

100:                                              ; preds = %94
  %101 = load ptr, ptr %8, align 8, !tbaa !20
  %102 = getelementptr inbounds nuw %struct.internal_state, ptr %101, i32 0, i32 33
  %103 = load i32, ptr %102, align 4, !tbaa !49
  %104 = icmp eq i32 %103, 0
  br i1 %104, label %105, label %142

105:                                              ; preds = %100
  %106 = load ptr, ptr %8, align 8, !tbaa !20
  %107 = getelementptr inbounds nuw %struct.internal_state, ptr %106, i32 0, i32 54
  %108 = load i32, ptr %107, align 8, !tbaa !96
  %109 = icmp ne i32 %108, 0
  br i1 %109, label %110, label %142

110:                                              ; preds = %105
  %111 = load ptr, ptr %8, align 8, !tbaa !20
  %112 = getelementptr inbounds nuw %struct.internal_state, ptr %111, i32 0, i32 54
  %113 = load i32, ptr %112, align 8, !tbaa !96
  %114 = icmp eq i32 %113, 1
  br i1 %114, label %115, label %117

115:                                              ; preds = %110
  %116 = load ptr, ptr %8, align 8, !tbaa !20
  call void @slide_hash(ptr noundef %116)
  br label %139

117:                                              ; preds = %110
  br label %118

118:                                              ; preds = %117
  %119 = load ptr, ptr %8, align 8, !tbaa !20
  %120 = getelementptr inbounds nuw %struct.internal_state, ptr %119, i32 0, i32 17
  %121 = load ptr, ptr %120, align 8, !tbaa !42
  %122 = load ptr, ptr %8, align 8, !tbaa !20
  %123 = getelementptr inbounds nuw %struct.internal_state, ptr %122, i32 0, i32 19
  %124 = load i32, ptr %123, align 4, !tbaa !37
  %125 = sub i32 %124, 1
  %126 = zext i32 %125 to i64
  %127 = getelementptr inbounds nuw i16, ptr %121, i64 %126
  store i16 0, ptr %127, align 2, !tbaa !54
  %128 = load ptr, ptr %8, align 8, !tbaa !20
  %129 = getelementptr inbounds nuw %struct.internal_state, ptr %128, i32 0, i32 17
  %130 = load ptr, ptr %129, align 8, !tbaa !42
  %131 = load ptr, ptr %8, align 8, !tbaa !20
  %132 = getelementptr inbounds nuw %struct.internal_state, ptr %131, i32 0, i32 19
  %133 = load i32, ptr %132, align 4, !tbaa !37
  %134 = sub i32 %133, 1
  %135 = zext i32 %134 to i64
  %136 = mul i64 %135, 2
  call void @llvm.memset.p0.i64(ptr align 1 %130, i8 0, i64 %136, i1 false)
  br label %137

137:                                              ; preds = %118
  br label %138

138:                                              ; preds = %137
  br label %139

139:                                              ; preds = %138, %115
  %140 = load ptr, ptr %8, align 8, !tbaa !20
  %141 = getelementptr inbounds nuw %struct.internal_state, ptr %140, i32 0, i32 54
  store i32 0, ptr %141, align 8, !tbaa !96
  br label %142

142:                                              ; preds = %139, %105, %100
  %143 = load i32, ptr %6, align 4, !tbaa !8
  %144 = load ptr, ptr %8, align 8, !tbaa !20
  %145 = getelementptr inbounds nuw %struct.internal_state, ptr %144, i32 0, i32 33
  store i32 %143, ptr %145, align 4, !tbaa !49
  %146 = load i32, ptr %6, align 4, !tbaa !8
  %147 = sext i32 %146 to i64
  %148 = getelementptr inbounds [10 x %struct.config_s], ptr @configuration_table, i64 0, i64 %147
  %149 = getelementptr inbounds nuw %struct.config_s, ptr %148, i32 0, i32 1
  %150 = load i16, ptr %149, align 2, !tbaa !80
  %151 = zext i16 %150 to i32
  %152 = load ptr, ptr %8, align 8, !tbaa !20
  %153 = getelementptr inbounds nuw %struct.internal_state, ptr %152, i32 0, i32 32
  store i32 %151, ptr %153, align 8, !tbaa !82
  %154 = load i32, ptr %6, align 4, !tbaa !8
  %155 = sext i32 %154 to i64
  %156 = getelementptr inbounds [10 x %struct.config_s], ptr @configuration_table, i64 0, i64 %155
  %157 = getelementptr inbounds nuw %struct.config_s, ptr %156, i32 0, i32 0
  %158 = load i16, ptr %157, align 16, !tbaa !83
  %159 = zext i16 %158 to i32
  %160 = load ptr, ptr %8, align 8, !tbaa !20
  %161 = getelementptr inbounds nuw %struct.internal_state, ptr %160, i32 0, i32 35
  store i32 %159, ptr %161, align 4, !tbaa !84
  %162 = load i32, ptr %6, align 4, !tbaa !8
  %163 = sext i32 %162 to i64
  %164 = getelementptr inbounds [10 x %struct.config_s], ptr @configuration_table, i64 0, i64 %163
  %165 = getelementptr inbounds nuw %struct.config_s, ptr %164, i32 0, i32 2
  %166 = load i16, ptr %165, align 4, !tbaa !85
  %167 = zext i16 %166 to i32
  %168 = load ptr, ptr %8, align 8, !tbaa !20
  %169 = getelementptr inbounds nuw %struct.internal_state, ptr %168, i32 0, i32 36
  store i32 %167, ptr %169, align 8, !tbaa !86
  %170 = load i32, ptr %6, align 4, !tbaa !8
  %171 = sext i32 %170 to i64
  %172 = getelementptr inbounds [10 x %struct.config_s], ptr @configuration_table, i64 0, i64 %171
  %173 = getelementptr inbounds nuw %struct.config_s, ptr %172, i32 0, i32 3
  %174 = load i16, ptr %173, align 2, !tbaa !87
  %175 = zext i16 %174 to i32
  %176 = load ptr, ptr %8, align 8, !tbaa !20
  %177 = getelementptr inbounds nuw %struct.internal_state, ptr %176, i32 0, i32 31
  store i32 %175, ptr %177, align 4, !tbaa !88
  br label %178

178:                                              ; preds = %142, %94
  %179 = load i32, ptr %7, align 4, !tbaa !8
  %180 = load ptr, ptr %8, align 8, !tbaa !20
  %181 = getelementptr inbounds nuw %struct.internal_state, ptr %180, i32 0, i32 34
  store i32 %179, ptr %181, align 8, !tbaa !50
  store i32 0, ptr %4, align 4
  store i32 1, ptr %10, align 4
  br label %182

182:                                              ; preds = %178, %91, %35, %15
  call void @llvm.lifetime.end.p0(i64 8, ptr %9) #5
  call void @llvm.lifetime.end.p0(i64 8, ptr %8) #5
  %183 = load i32, ptr %4, align 4
  ret i32 %183
}