; Function Attrs: nounwind uwtable
define range(i32 -5, 1) i32 @deflateParams(ptr noundef %0, i32 noundef %1, i32 noundef %2) local_unnamed_addr #0 {
  %4 = icmp eq ptr %0, null
  br i1 %4, label %deflateStateCheck.exit.thread, label %5

5:                                                ; preds = %3
  %6 = getelementptr inbounds nuw i8, ptr %0, i64 64
  %7 = load ptr, ptr %6, align 8, !tbaa !13
  %8 = icmp eq ptr %7, null
  br i1 %8, label %deflateStateCheck.exit.thread, label %9

9:                                                ; preds = %5
  %10 = getelementptr inbounds nuw i8, ptr %0, i64 72
  %11 = load ptr, ptr %10, align 8, !tbaa !15
  %12 = icmp eq ptr %11, null
  br i1 %12, label %deflateStateCheck.exit.thread, label %13

13:                                               ; preds = %9
  %14 = getelementptr inbounds nuw i8, ptr %0, i64 56
  %15 = load ptr, ptr %14, align 8, !tbaa !16
  %16 = icmp eq ptr %15, null
  br i1 %16, label %deflateStateCheck.exit.thread, label %17

17:                                               ; preds = %13
  %18 = load ptr, ptr %15, align 8, !tbaa !17
  %.not.i = icmp eq ptr %18, %0
  br i1 %.not.i, label %19, label %deflateStateCheck.exit.thread

19:                                               ; preds = %17
  %20 = getelementptr inbounds nuw i8, ptr %15, i64 8
  %21 = load i32, ptr %20, align 8, !tbaa !26
  switch i32 %21, label %deflateStateCheck.exit.thread [
    i32 42, label %deflateStateCheck.exit
    i32 57, label %deflateStateCheck.exit
    i32 69, label %deflateStateCheck.exit
    i32 73, label %deflateStateCheck.exit
    i32 91, label %deflateStateCheck.exit
    i32 103, label %deflateStateCheck.exit
    i32 113, label %deflateStateCheck.exit
    i32 666, label %deflateStateCheck.exit
  ]

deflateStateCheck.exit:                           ; preds = %19, %19, %19, %19, %19, %19, %19, %19
  %22 = icmp eq i32 %1, -1
  %spec.store.select = select i1 %22, i32 6, i32 %1
  %or.cond = icmp ugt i32 %spec.store.select, 9
  %23 = icmp ugt i32 %2, 4
  %or.cond5 = or i1 %23, %or.cond
  br i1 %or.cond5, label %deflateStateCheck.exit.thread, label %24

24:                                               ; preds = %deflateStateCheck.exit
  %25 = getelementptr inbounds nuw i8, ptr %15, i64 196
  %26 = getelementptr inbounds nuw i8, ptr %15, i64 200
  %27 = load i32, ptr %26, align 8, !tbaa !47
  %.not54 = icmp eq i32 %2, %27
  br i1 %.not54, label %28, label %36

28:                                               ; preds = %24
  %29 = load i32, ptr %25, align 4, !tbaa !46
  %30 = sext i32 %29 to i64
  %31 = getelementptr inbounds [10 x %struct.config_s], ptr @configuration_table, i64 0, i64 %30, i32 4
  %32 = load ptr, ptr %31, align 8, !tbaa !89
  %33 = zext nneg i32 %spec.store.select to i64
  %34 = getelementptr inbounds nuw [10 x %struct.config_s], ptr @configuration_table, i64 0, i64 %33, i32 4
  %35 = load ptr, ptr %34, align 8, !tbaa !89
  %.not55 = icmp eq ptr %32, %35
  br i1 %.not55, label %56, label %36

36:                                               ; preds = %28, %24
  %37 = getelementptr inbounds nuw i8, ptr %15, i64 76
  %38 = load i32, ptr %37, align 4, !tbaa !84
  %.not56 = icmp eq i32 %38, -2
  br i1 %.not56, label %56, label %39

39:                                               ; preds = %36
  %40 = tail call i32 @deflate(ptr noundef nonnull %0, i32 noundef 5)
  %41 = icmp eq i32 %40, -2
  br i1 %41, label %deflateStateCheck.exit.thread, label %42

42:                                               ; preds = %39
  %43 = getelementptr inbounds nuw i8, ptr %0, i64 8
  %44 = load i32, ptr %43, align 8, !tbaa !69
  %.not57 = icmp eq i32 %44, 0
  br i1 %.not57, label %45, label %deflateStateCheck.exit.thread

45:                                               ; preds = %42
  %46 = getelementptr inbounds nuw i8, ptr %15, i64 172
  %47 = load i32, ptr %46, align 4, !tbaa !60
  %48 = zext i32 %47 to i64
  %49 = getelementptr inbounds nuw i8, ptr %15, i64 152
  %50 = load i64, ptr %49, align 8, !tbaa !61
  %51 = sub nsw i64 %48, %50
  %52 = getelementptr inbounds nuw i8, ptr %15, i64 180
  %53 = load i32, ptr %52, align 4, !tbaa !62
  %54 = zext i32 %53 to i64
  %55 = sub nsw i64 0, %54
  %.not58 = icmp eq i64 %51, %55
  br i1 %.not58, label %56, label %deflateStateCheck.exit.thread

56:                                               ; preds = %45, %36, %28
  %57 = load i32, ptr %25, align 4, !tbaa !46
  %.not59 = icmp eq i32 %57, %spec.store.select
  br i1 %.not59, label %92, label %58

58:                                               ; preds = %56
  %59 = icmp eq i32 %57, 0
  br i1 %59, label %60, label %74

60:                                               ; preds = %58
  %61 = getelementptr inbounds nuw i8, ptr %15, i64 5928
  %62 = load i32, ptr %61, align 8, !tbaa !90
  switch i32 %62, label %64 [
    i32 0, label %74
    i32 1, label %63
  ]

63:                                               ; preds = %60
  tail call fastcc void @slide_hash(ptr noundef nonnull %15)
  br label %73

64:                                               ; preds = %60
  %65 = getelementptr inbounds nuw i8, ptr %15, i64 120
  %66 = load ptr, ptr %65, align 8, !tbaa !38
  %67 = getelementptr inbounds nuw i8, ptr %15, i64 132
  %68 = load i32, ptr %67, align 4, !tbaa !33
  %69 = add i32 %68, -1
  %70 = zext i32 %69 to i64
  %71 = getelementptr inbounds nuw i16, ptr %66, i64 %70
  store i16 0, ptr %71, align 2, !tbaa !50
  %72 = shl nuw nsw i64 %70, 1
  tail call void @llvm.memset.p0.i64(ptr align 1 %66, i8 0, i64 %72, i1 false)
  br label %73

73:                                               ; preds = %64, %63
  store i32 0, ptr %61, align 8, !tbaa !90
  br label %74

74:                                               ; preds = %60, %73, %58
  store i32 %spec.store.select, ptr %25, align 4, !tbaa !46
  %75 = zext nneg i32 %spec.store.select to i64
  %76 = getelementptr inbounds nuw [10 x %struct.config_s], ptr @configuration_table, i64 0, i64 %75
  %77 = getelementptr inbounds nuw i8, ptr %76, i64 2
  %78 = load i16, ptr %77, align 2, !tbaa !51
  %79 = zext i16 %78 to i32
  %80 = getelementptr inbounds nuw i8, ptr %15, i64 192
  store i32 %79, ptr %80, align 8, !tbaa !53
  %81 = load i16, ptr %76, align 16, !tbaa !54
  %82 = zext i16 %81 to i32
  %83 = getelementptr inbounds nuw i8, ptr %15, i64 204
  store i32 %82, ptr %83, align 4, !tbaa !55
  %84 = getelementptr inbounds nuw i8, ptr %76, i64 4
  %85 = load i16, ptr %84, align 4, !tbaa !56
  %86 = zext i16 %85 to i32
  %87 = getelementptr inbounds nuw i8, ptr %15, i64 208
  store i32 %86, ptr %87, align 8, !tbaa !57
  %88 = getelementptr inbounds nuw i8, ptr %76, i64 6
  %89 = load i16, ptr %88, align 2, !tbaa !58
  %90 = zext i16 %89 to i32
  %91 = getelementptr inbounds nuw i8, ptr %15, i64 188
  store i32 %90, ptr %91, align 4, !tbaa !59
  br label %92

92:                                               ; preds = %74, %56
  store i32 %2, ptr %26, align 8, !tbaa !47
  br label %deflateStateCheck.exit.thread

deflateStateCheck.exit.thread:                    ; preds = %42, %39, %13, %17, %19, %3, %5, %9, %deflateStateCheck.exit, %45, %92
  %.0 = phi i32 [ 0, %92 ], [ -5, %45 ], [ -2, %deflateStateCheck.exit ], [ -2, %9 ], [ -2, %5 ], [ -2, %3 ], [ -2, %19 ], [ -2, %17 ], [ -2, %13 ], [ -5, %42 ], [ -2, %39 ]
  ret i32 %.0
}